target datalayout = "e-m:e-p270:32:32-p271:32:32-p272:64:64-i64:64-i128:128-f80:128-n8:16:32:64-S128"
target triple = "x86_64-pc-linux-gnu"

%class.FormatBuffer = type { %class.FormatBufferBase, [256 x i8] }
%class.FormatBufferBase = type { ptr }

@.str = private unnamed_addr constant [36 x i8] c"Non-generational ZGC is deprecated.\00", align 1
@ZMarkStackSpaceLimit = external global i64, align 8
@.str.4 = private unnamed_addr constant [57 x i8] c"ZMarkStackSpaceLimit too large for limited address space\00", align 1
@UseNUMA = external global i8, align 1
@ZFragmentationLimit = external global double, align 8
@ParallelGCThreads = external global i32, align 4
@.str.5 = private unnamed_addr constant [70 x i8] c"The flag -XX:+UseZGC can not be combined with -XX:ParallelGCThreads=0\00", align 1
@ConcGCThreads = external global i32, align 4
@.str.6 = private unnamed_addr constant [66 x i8] c"The flag -XX:+UseZGC can not be combined with -XX:ConcGCThreads=0\00", align 1
@LargePageSizeInBytes = external global i64, align 8
@.str.7 = private unnamed_addr constant [82 x i8] c"Incompatible -XX:LargePageSizeInBytes, only %luM large pages are supported by ZGC\00", align 1
@UseDynamicNumberOfGCThreads = external global i8, align 1
@ZAllocationSpikeTolerance = external global double, align 8
@UseCountedLoopSafepoints = external global i8, align 1
@LoopStripMiningIter = external global i64, align 8
@UseCompressedOops = external global i8, align 1
@VerifyDuringStartup = external global i8, align 1
@VerifyBeforeExit = external global i8, align 1
@VerifyBeforeGC = external global i8, align 1
@VerifyDuringGC = external global i8, align 1
@VerifyAfterGC = external global i8, align 1
@ZVerifyRoots = external global i8, align 1
@ZVerifyObjects = external global i8, align 1

; Function Attrs: mustprogress nounwind uwtable
define linkonce_odr hidden noundef ptr @_ZNK16FormatBufferBasecvPKcEv(ptr noundef nonnull align 8 dereferenceable(8) %0) #1 comdat align 2 {
  %2 = alloca ptr, align 8
  store ptr %0, ptr %2, align 8
  %3 = load ptr, ptr %2, align 8
  %4 = getelementptr inbounds %class.FormatBufferBase, ptr %3, i32 0, i32 0
  %5 = load ptr, ptr %4, align 8
  ret ptr %5
}

; Function Attrs: mustprogress nounwind uwtable
define hidden void @_ZN10XArguments10initializeEv() #1 align 2 {
  %1 = alloca i64, align 8
  %2 = alloca %class.FormatBuffer, align 8
  call void (ptr, ...) @_Z7warningPKcz(ptr noundef @.str)
  %3 = call noundef i64 @_ZN18XAddressSpaceLimit10mark_stackEv()
  store i64 %3, ptr %1, align 8
  %4 = load i64, ptr @ZMarkStackSpaceLimit, align 8
  %5 = load i64, ptr %1, align 8
  %6 = icmp ugt i64 %4, %5
  br i1 %6, label %7, label %12

7:                                                ; preds = %0
  %8 = call noundef zeroext i1 @_ZN7JVMFlag10is_defaultE12JVMFlagsEnum(i32 noundef 1060)
  br i1 %8, label %10, label %9

9:                                                ; preds = %7
  call void @_Z29vm_exit_during_initializationPKcS0_(ptr noundef @.str.4, ptr noundef null)
  br label %10

10:                                               ; preds = %9, %7
  %11 = load i64, ptr %1, align 8
  store i64 %11, ptr @ZMarkStackSpaceLimit, align 8
  br label %12

12:                                               ; preds = %10, %0
  %13 = call noundef zeroext i1 @_ZN7JVMFlag10is_defaultE12JVMFlagsEnum(i32 noundef 459)
  br i1 %13, label %14, label %15

14:                                               ; preds = %12
  store i8 1, ptr @UseNUMA, align 1
  br label %15

15:                                               ; preds = %14, %12
  %16 = call noundef zeroext i1 @_ZN7JVMFlag10is_defaultE12JVMFlagsEnum(i32 noundef 1059)
  br i1 %16, label %17, label %18

17:                                               ; preds = %15
  store double 2.500000e+01, ptr @ZFragmentationLimit, align 8
  br label %18

18:                                               ; preds = %17, %15
  %19 = call noundef zeroext i1 @_ZN7JVMFlag10is_defaultE12JVMFlagsEnum(i32 noundef 1092)
  br i1 %19, label %20, label %22

20:                                               ; preds = %18
  %21 = call noundef i32 @_ZN11XHeuristics17nparallel_workersEv()
  store i32 %21, ptr @ParallelGCThreads, align 4
  br label %22

22:                                               ; preds = %20, %18
  %23 = load i32, ptr @ParallelGCThreads, align 4
  %24 = icmp eq i32 %23, 0
  br i1 %24, label %25, label %26

25:                                               ; preds = %22
  call void @_Z29vm_exit_during_initializationPKcS0_(ptr noundef @.str.5, ptr noundef null)
  br label %26

26:                                               ; preds = %25, %22
  %27 = call noundef zeroext i1 @_ZN7JVMFlag10is_defaultE12JVMFlagsEnum(i32 noundef 1096)
  br i1 %27, label %28, label %30

28:                                               ; preds = %26
  %29 = call noundef i32 @_ZN11XHeuristics19nconcurrent_workersEv()
  store i32 %29, ptr @ConcGCThreads, align 4
  br label %30

30:                                               ; preds = %28, %26
  %31 = load i32, ptr @ConcGCThreads, align 4
  %32 = icmp eq i32 %31, 0
  br i1 %32, label %33, label %34

33:                                               ; preds = %30
  call void @_Z29vm_exit_during_initializationPKcS0_(ptr noundef @.str.6, ptr noundef null)
  br label %34

34:                                               ; preds = %33, %30
  %35 = call noundef zeroext i1 @_ZN7JVMFlag10is_defaultE12JVMFlagsEnum(i32 noundef 473)
  br i1 %35, label %41, label %36

36:                                               ; preds = %34
  %37 = load i64, ptr @LargePageSizeInBytes, align 8
  %38 = icmp ne i64 %37, 2097152
  br i1 %38, label %39, label %41

39:                                               ; preds = %36
  call void (ptr, ptr, ...) @_ZN12FormatBufferILm256EEC2EPKcz(ptr noundef nonnull align 8 dereferenceable(264) %2, ptr noundef @.str.7, i64 noundef 2)
  %40 = call noundef ptr @_ZNK16FormatBufferBasecvPKcEv(ptr noundef nonnull align 8 dereferenceable(8) %2)
  call void @_Z29vm_exit_during_initializationPKcS0_(ptr noundef %40, ptr noundef null)
  br label %41

41:                                               ; preds = %39, %36, %34
  %42 = load i8, ptr @UseDynamicNumberOfGCThreads, align 1
  %43 = trunc i8 %42 to i1
  br i1 %43, label %44, label %47

44:                                               ; preds = %41
  %45 = call noundef zeroext i1 @_ZN7JVMFlag10is_defaultE12JVMFlagsEnum(i32 noundef 1058)
  br i1 %45, label %46, label %47

46:                                               ; preds = %44
  store double 1.000000e+00, ptr @ZAllocationSpikeTolerance, align 8
  br label %47

47:                                               ; preds = %46, %44, %41
  %48 = call noundef zeroext i1 @_ZN7JVMFlag10is_defaultE12JVMFlagsEnum(i32 noundef 204)
  br i1 %48, label %49, label %53

49:                                               ; preds = %47
  store i8 1, ptr @UseCountedLoopSafepoints, align 1
  %50 = call noundef zeroext i1 @_ZN7JVMFlag10is_defaultE12JVMFlagsEnum(i32 noundef 358)
  br i1 %50, label %51, label %52

51:                                               ; preds = %49
  store i64 1000, ptr @LoopStripMiningIter, align 8
  br label %52

52:                                               ; preds = %51, %49
  br label %53

53:                                               ; preds = %52, %47
  store i8 0, ptr @UseCompressedOops, align 1
  store i8 0, ptr @VerifyDuringStartup, align 1
  store i8 0, ptr @VerifyBeforeExit, align 1
  %54 = load i8, ptr @VerifyBeforeGC, align 1
  %55 = trunc i8 %54 to i1
  br i1 %55, label %62, label %56

56:                                               ; preds = %53
  %57 = load i8, ptr @VerifyDuringGC, align 1
  %58 = trunc i8 %57 to i1
  br i1 %58, label %62, label %59

59:                                               ; preds = %56
  %60 = load i8, ptr @VerifyAfterGC, align 1
  %61 = trunc i8 %60 to i1
  br i1 %61, label %62, label %63

62:                                               ; preds = %59, %56, %53
  store i8 1, ptr @ZVerifyRoots, align 1
  store i8 1, ptr @ZVerifyObjects, align 1
  br label %63

63:                                               ; preds = %62, %59
  ret void
}