; Function Attrs: mustprogress nounwind uwtable
define hidden void @_ZN10XArguments10initializeEv() local_unnamed_addr #2 align 2 {
  %1 = alloca %class.FormatBuffer, align 8
  tail call void (ptr, ...) @_Z7warningPKcz(ptr noundef nonnull @.str) #6
  %2 = tail call noundef i64 @_ZN18XAddressSpaceLimit10mark_stackEv() #6
  %3 = load i64, ptr @ZMarkStackSpaceLimit, align 8
  %4 = icmp ugt i64 %3, %2
  br i1 %4, label %5, label %9

5:                                                ; preds = %0
  %6 = tail call noundef zeroext i1 @_ZN7JVMFlag10is_defaultE12JVMFlagsEnum(i32 noundef 1060) #6
  br i1 %6, label %8, label %7

7:                                                ; preds = %5
  tail call void @_Z29vm_exit_during_initializationPKcS0_(ptr noundef nonnull @.str.4, ptr noundef null) #6
  br label %8

8:                                                ; preds = %7, %5
  store i64 %2, ptr @ZMarkStackSpaceLimit, align 8
  br label %9

9:                                                ; preds = %8, %0
  %10 = tail call noundef zeroext i1 @_ZN7JVMFlag10is_defaultE12JVMFlagsEnum(i32 noundef 459) #6
  br i1 %10, label %11, label %12

11:                                               ; preds = %9
  store i8 1, ptr @UseNUMA, align 1
  br label %12

12:                                               ; preds = %11, %9
  %13 = tail call noundef zeroext i1 @_ZN7JVMFlag10is_defaultE12JVMFlagsEnum(i32 noundef 1059) #6
  br i1 %13, label %14, label %15

14:                                               ; preds = %12
  store double 2.500000e+01, ptr @ZFragmentationLimit, align 8
  br label %15

15:                                               ; preds = %14, %12
  %16 = tail call noundef zeroext i1 @_ZN7JVMFlag10is_defaultE12JVMFlagsEnum(i32 noundef 1092) #6
  br i1 %16, label %17, label %thread-pre-split

17:                                               ; preds = %15
  %18 = tail call noundef i32 @_ZN11XHeuristics17nparallel_workersEv() #6
  store i32 %18, ptr @ParallelGCThreads, align 4
  br label %19

thread-pre-split:                                 ; preds = %15
  %.pr = load i32, ptr @ParallelGCThreads, align 4
  br label %19

19:                                               ; preds = %thread-pre-split, %17
  %20 = phi i32 [ %.pr, %thread-pre-split ], [ %18, %17 ]
  %21 = icmp eq i32 %20, 0
  br i1 %21, label %22, label %23

22:                                               ; preds = %19
  tail call void @_Z29vm_exit_during_initializationPKcS0_(ptr noundef nonnull @.str.5, ptr noundef null) #6
  br label %23

23:                                               ; preds = %22, %19
  %24 = tail call noundef zeroext i1 @_ZN7JVMFlag10is_defaultE12JVMFlagsEnum(i32 noundef 1096) #6
  br i1 %24, label %25, label %thread-pre-split4

25:                                               ; preds = %23
  %26 = tail call noundef i32 @_ZN11XHeuristics19nconcurrent_workersEv() #6
  store i32 %26, ptr @ConcGCThreads, align 4
  br label %27

thread-pre-split4:                                ; preds = %23
  %.pr5 = load i32, ptr @ConcGCThreads, align 4
  br label %27

27:                                               ; preds = %thread-pre-split4, %25
  %28 = phi i32 [ %.pr5, %thread-pre-split4 ], [ %26, %25 ]
  %29 = icmp eq i32 %28, 0
  br i1 %29, label %30, label %31

30:                                               ; preds = %27
  tail call void @_Z29vm_exit_during_initializationPKcS0_(ptr noundef nonnull @.str.6, ptr noundef null) #6
  br label %31

31:                                               ; preds = %30, %27
  %32 = tail call noundef zeroext i1 @_ZN7JVMFlag10is_defaultE12JVMFlagsEnum(i32 noundef 473) #6
  %33 = load i64, ptr @LargePageSizeInBytes, align 8
  %34 = icmp eq i64 %33, 2097152
  %or.cond.not = select i1 %32, i1 true, i1 %34
  br i1 %or.cond.not, label %37, label %35

35:                                               ; preds = %31
  call void (ptr, ptr, ...) @_ZN12FormatBufferILm256EEC2EPKcz(ptr noundef nonnull align 8 dereferenceable(264) %1, ptr noundef nonnull @.str.7, i64 noundef 2)
  %36 = load ptr, ptr %1, align 8
  call void @_Z29vm_exit_during_initializationPKcS0_(ptr noundef %36, ptr noundef null) #6
  br label %37

37:                                               ; preds = %35, %31
  %38 = load i8, ptr @UseDynamicNumberOfGCThreads, align 1
  %39 = trunc i8 %38 to i1
  br i1 %39, label %40, label %43

40:                                               ; preds = %37
  %41 = call noundef zeroext i1 @_ZN7JVMFlag10is_defaultE12JVMFlagsEnum(i32 noundef 1058) #6
  br i1 %41, label %42, label %43

42:                                               ; preds = %40
  store double 1.000000e+00, ptr @ZAllocationSpikeTolerance, align 8
  br label %43

43:                                               ; preds = %42, %40, %37
  %44 = call noundef zeroext i1 @_ZN7JVMFlag10is_defaultE12JVMFlagsEnum(i32 noundef 204) #6
  br i1 %44, label %45, label %48

45:                                               ; preds = %43
  store i8 1, ptr @UseCountedLoopSafepoints, align 1
  %46 = call noundef zeroext i1 @_ZN7JVMFlag10is_defaultE12JVMFlagsEnum(i32 noundef 358) #6
  br i1 %46, label %47, label %48

47:                                               ; preds = %45
  store i64 1000, ptr @LoopStripMiningIter, align 8
  br label %48

48:                                               ; preds = %45, %47, %43
  store i8 0, ptr @UseCompressedOops, align 1
  store i8 0, ptr @VerifyDuringStartup, align 1
  store i8 0, ptr @VerifyBeforeExit, align 1
  %49 = load i8, ptr @VerifyBeforeGC, align 1
  %50 = trunc i8 %49 to i1
  br i1 %50, label %57, label %51

51:                                               ; preds = %48
  %52 = load i8, ptr @VerifyDuringGC, align 1
  %53 = trunc i8 %52 to i1
  br i1 %53, label %57, label %54

54:                                               ; preds = %51
  %55 = load i8, ptr @VerifyAfterGC, align 1
  %56 = trunc i8 %55 to i1
  br i1 %56, label %57, label %58

57:                                               ; preds = %54, %51, %48
  store i8 1, ptr @ZVerifyRoots, align 1
  store i8 1, ptr @ZVerifyObjects, align 1
  br label %58

58:                                               ; preds = %57, %54
  ret void
}